; Function Attrs: mustprogress uwtable
define hidden void @_ZN6google8protobuf12OneofOptionsC2EPNS0_5ArenaEb(ptr noundef nonnull align 8 dereferenceable(72) initializes((0, 16)) %0, ptr noundef %1, i1 noundef zeroext %2) unnamed_addr #3 align 2 personality ptr @__gxx_personality_v0 {
  %4 = getelementptr inbounds nuw i8, ptr %0, i64 8
  %5 = ptrtoint ptr %1 to i64
  %6 = or i64 %5, 2
  %7 = select i1 %2, i64 %6, i64 %5
  store i64 %7, ptr %4, align 8, !tbaa !8
  store ptr getelementptr inbounds nuw inrange(-16, 152) (i8, ptr @_ZTVN6google8protobuf12OneofOptionsE, i64 16), ptr %0, align 8, !tbaa !11
  %8 = getelementptr inbounds nuw i8, ptr %0, i64 16
  invoke void @_ZN6google8protobuf8internal12ExtensionSetC1EPNS0_5ArenaE(ptr noundef nonnull align 8 dereferenceable(24) %8, ptr noundef %1)
          to label %9 unwind label %12

9:                                                ; preds = %3
  %10 = getelementptr inbounds nuw i8, ptr %0, i64 40
  store ptr %1, ptr %10, align 8, !tbaa !13
  %11 = getelementptr inbounds nuw i8, ptr %0, i64 48
  tail call void @llvm.memset.p0.i64(ptr noundef nonnull align 8 dereferenceable(20) %11, i8 0, i64 20, i1 false)
  ret void

12:                                               ; preds = %3
  %13 = landingpad { ptr, i32 }
          cleanup
  tail call void @_ZN6google8protobuf11MessageLiteD2Ev(ptr noundef nonnull align 8 dereferenceable(16) %0) #24
  resume { ptr, i32 } %13
}